(lp0
(S'cppflags'
p1
ccopy_reg
_reconstructor
p2
(cino.utils
SpaceList
p3
c__builtin__
list
p4
(lp5
S'-mmcu=atmega328p'
p6
aS'-DF_CPU=16000000L'
p7
aS'-DARDUINO=106'
p8
aS'-I/Applications/Arduino.app/Contents/Resources/Java/hardware/arduino/cores/arduino'
p9
aS'-ffunction-sections'
p10
aS'-fdata-sections'
p11
aS'-g'
p12
aS'-Os'
p13
aS'-w'
p14
aS'-I/Applications/Arduino.app/Contents/Resources/Java/hardware/arduino/variants/standard'
p15
aS'-I/Applications/Arduino.app/Contents/Resources/Java/hardware/arduino/cores/arduino'
p16
aS'-I/Applications/Arduino.app/Contents/Resources/Java/hardware/arduino/cores/arduino/avr-libc'
p17
atp18
Rp19
tp20
a(S'cxx'
p21
S'/Applications/Arduino.app/Contents/Resources/Java/hardware/tools/avr/bin/avr-g++'
p22
tp23
a(S'arduino_libraries_dir'
p24
S'/Applications/Arduino.app/Contents/Resources/Java/libraries'
p25
tp26
a(S'avrdude'
p27
S'/Applications/Arduino.app/Contents/Resources/Java/hardware/tools/avr/bin/avrdude'
p28
tp29
a(S'ar'
p30
S'/Applications/Arduino.app/Contents/Resources/Java/hardware/tools/avr/bin/avr-ar'
p31
tp32
a(S'names'
p33
(dp34
S'cpp'
p35
S'%s.cpp'
p36
sS'obj'
p37
S'%s.o'
p38
sS'deps'
p39
S'%s.d'
p40
sS'lib'
p41
S'lib%s.a'
p42
stp43
a(S'ldflags'
p44
g2
(g3
g4
(lp45
g6
aS'-Wl,-Os'
p46
aS'-Wl,--gc-sections'
p47
atp48
Rp49
tp50
a(S'serial'
p51
S'/usr/local/bin/picocom'
p52
tp53
a(S'objcopy'
p54
S'/Applications/Arduino.app/Contents/Resources/Java/hardware/tools/avr/bin/avr-objcopy'
p55
tp56
a(S'board_models'
p57
cino.environment
BoardModels
p58
((lp59
(lp60
S'uno'
p61
a(dp62
S'bootloader'
p63
(dp64
S'extended_fuses'
p65
S'0x05'
p66
sS'high_fuses'
p67
S'0xde'
p68
sS'low_fuses'
p69
S'0xff'
p70
sS'lock_bits'
p71
S'0x0F'
p72
sS'file'
p73
S'optiboot_atmega328.hex'
p74
sS'path'
p75
S'optiboot'
p76
sS'unlock_bits'
p77
S'0x3F'
p78
ssS'build'
p79
(dp80
S'core'
p81
S'arduino'
p82
sS'mcu'
p83
S'atmega328p'
p84
sS'f_cpu'
p85
S'16000000L'
p86
sS'variant'
p87
S'standard'
p88
ssS'name'
p89
S'Arduino Uno'
p90
sS'upload'
p91
(dp92
S'speed'
p93
S'115200'
p94
sS'maximum_size'
p95
S'32256'
p96
sS'protocol'
p97
S'arduino'
p98
ssaa(lp99
S'atmega328'
p100
a(dp101
S'bootloader'
p102
(dp103
S'extended_fuses'
p104
S'0x05'
p105
sS'high_fuses'
p106
S'0xDA'
p107
sS'low_fuses'
p108
S'0xFF'
p109
sS'lock_bits'
p110
S'0x0F'
p111
sS'file'
p112
S'ATmegaBOOT_168_atmega328.hex'
p113
sS'path'
p114
S'atmega'
p115
sS'unlock_bits'
p116
S'0x3F'
p117
ssS'build'
p118
(dp119
S'core'
p120
S'arduino'
p121
sS'mcu'
p122
S'atmega328p'
p123
sS'f_cpu'
p124
S'16000000L'
p125
sS'variant'
p126
S'standard'
p127
ssS'name'
p128
S'Arduino Duemilanove w/ ATmega328'
p129
sS'upload'
p130
(dp131
S'speed'
p132
S'57600'
p133
sS'maximum_size'
p134
S'30720'
p135
sS'protocol'
p136
S'arduino'
p137
ssaa(lp138
S'diecimila'
p139
a(dp140
S'bootloader'
p141
(dp142
S'extended_fuses'
p143
S'0x00'
p144
sS'high_fuses'
p145
S'0xdd'
p146
sS'low_fuses'
p147
S'0xff'
p148
sS'lock_bits'
p149
S'0x0F'
p150
sS'file'
p151
S'ATmegaBOOT_168_diecimila.hex'
p152
sS'path'
p153
S'atmega'
p154
sS'unlock_bits'
p155
S'0x3F'
p156
ssS'build'
p157
(dp158
S'core'
p159
S'arduino'
p160
sS'mcu'
p161
S'atmega168'
p162
sS'f_cpu'
p163
S'16000000L'
p164
sS'variant'
p165
S'standard'
p166
ssS'name'
p167
S'Arduino Diecimila or Duemilanove w/ ATmega168'
p168
sS'upload'
p169
(dp170
S'speed'
p171
S'19200'
p172
sS'maximum_size'
p173
S'14336'
p174
sS'protocol'
p175
S'arduino'
p176
ssaa(lp177
S'nano328'
p178
a(dp179
S'bootloader'
p180
(dp181
S'extended_fuses'
p182
S'0x05'
p183
sS'high_fuses'
p184
S'0xDA'
p185
sS'low_fuses'
p186
S'0xFF'
p187
sS'lock_bits'
p188
S'0x0F'
p189
sS'file'
p190
S'ATmegaBOOT_168_atmega328.hex'
p191
sS'path'
p192
S'atmega'
p193
sS'unlock_bits'
p194
S'0x3F'
p195
ssS'build'
p196
(dp197
S'core'
p198
S'arduino'
p199
sS'mcu'
p200
S'atmega328p'
p201
sS'f_cpu'
p202
S'16000000L'
p203
sS'variant'
p204
S'eightanaloginputs'
p205
ssS'name'
p206
S'Arduino Nano w/ ATmega328'
p207
sS'upload'
p208
(dp209
S'speed'
p210
S'57600'
p211
sS'maximum_size'
p212
S'30720'
p213
sS'protocol'
p214
S'arduino'
p215
ssaa(lp216
S'nano'
p217
a(dp218
S'bootloader'
p219
(dp220
S'extended_fuses'
p221
S'0x00'
p222
sS'high_fuses'
p223
S'0xdd'
p224
sS'low_fuses'
p225
S'0xff'
p226
sS'lock_bits'
p227
S'0x0F'
p228
sS'file'
p229
S'ATmegaBOOT_168_diecimila.hex'
p230
sS'path'
p231
S'atmega'
p232
sS'unlock_bits'
p233
S'0x3F'
p234
ssS'build'
p235
(dp236
S'core'
p237
S'arduino'
p238
sS'mcu'
p239
S'atmega168'
p240
sS'f_cpu'
p241
S'16000000L'
p242
sS'variant'
p243
S'eightanaloginputs'
p244
ssS'name'
p245
S'Arduino Nano w/ ATmega168'
p246
sS'upload'
p247
(dp248
S'speed'
p249
S'19200'
p250
sS'maximum_size'
p251
S'14336'
p252
sS'protocol'
p253
S'arduino'
p254
ssaa(lp255
S'mega2560'
p256
a(dp257
S'bootloader'
p258
(dp259
S'extended_fuses'
p260
S'0xFD'
p261
sS'high_fuses'
p262
S'0xD8'
p263
sS'low_fuses'
p264
S'0xFF'
p265
sS'lock_bits'
p266
S'0x0F'
p267
sS'file'
p268
S'stk500boot_v2_mega2560.hex'
p269
sS'path'
p270
S'stk500v2'
p271
sS'unlock_bits'
p272
S'0x3F'
p273
ssS'build'
p274
(dp275
S'core'
p276
S'arduino'
p277
sS'mcu'
p278
S'atmega2560'
p279
sS'f_cpu'
p280
S'16000000L'
p281
sS'variant'
p282
S'mega'
p283
ssS'name'
p284
S'Arduino Mega 2560 or Mega ADK'
p285
sS'upload'
p286
(dp287
S'speed'
p288
S'115200'
p289
sS'maximum_size'
p290
S'258048'
p291
sS'protocol'
p292
S'wiring'
p293
ssaa(lp294
S'mega'
p295
a(dp296
S'bootloader'
p297
(dp298
S'extended_fuses'
p299
S'0xF5'
p300
sS'high_fuses'
p301
S'0xDA'
p302
sS'low_fuses'
p303
S'0xFF'
p304
sS'lock_bits'
p305
S'0x0F'
p306
sS'file'
p307
S'ATmegaBOOT_168_atmega1280.hex'
p308
sS'path'
p309
S'atmega'
p310
sS'unlock_bits'
p311
S'0x3F'
p312
ssS'build'
p313
(dp314
S'core'
p315
S'arduino'
p316
sS'mcu'
p317
S'atmega1280'
p318
sS'f_cpu'
p319
S'16000000L'
p320
sS'variant'
p321
S'mega'
p322
ssS'name'
p323
S'Arduino Mega (ATmega1280)'
p324
sS'upload'
p325
(dp326
S'speed'
p327
S'57600'
p328
sS'maximum_size'
p329
S'126976'
p330
sS'protocol'
p331
S'arduino'
p332
ssaa(lp333
S'leonardo'
p334
a(dp335
S'bootloader'
p336
(dp337
S'extended_fuses'
p338
S'0xcb'
p339
sS'high_fuses'
p340
S'0xd8'
p341
sS'low_fuses'
p342
S'0xff'
p343
sS'lock_bits'
p344
S'0x2F'
p345
sS'file'
p346
S'Caterina-Leonardo.hex'
p347
sS'path'
p348
S'caterina'
p349
sS'unlock_bits'
p350
S'0x3F'
p351
ssS'build'
p352
(dp353
S'core'
p354
S'arduino'
p355
sS'f_cpu'
p356
S'16000000L'
p357
sS'vid'
p358
S'0x2341'
p359
sS'pid'
p360
S'0x8036'
p361
sS'variant'
p362
S'leonardo'
p363
sS'mcu'
p364
S'atmega32u4'
p365
ssS'name'
p366
S'Arduino Leonardo'
p367
sS'upload'
p368
(dp369
S'speed'
p370
S'57600'
p371
sS'maximum_size'
p372
S'28672'
p373
sS'protocol'
p374
S'avr109'
p375
sS'disable_flushing'
p376
S'true'
p377
ssaa(lp378
S'esplora'
p379
a(dp380
S'bootloader'
p381
(dp382
S'extended_fuses'
p383
S'0xcb'
p384
sS'high_fuses'
p385
S'0xd8'
p386
sS'low_fuses'
p387
S'0xff'
p388
sS'lock_bits'
p389
S'0x2F'
p390
sS'file'
p391
S'Caterina-Esplora.hex'
p392
sS'path'
p393
S'caterina'
p394
sS'unlock_bits'
p395
S'0x3F'
p396
ssS'build'
p397
(dp398
S'core'
p399
S'arduino'
p400
sS'f_cpu'
p401
S'16000000L'
p402
sS'vid'
p403
S'0x2341'
p404
sS'pid'
p405
S'0x803C'
p406
sS'variant'
p407
S'leonardo'
p408
sS'mcu'
p409
S'atmega32u4'
p410
ssS'name'
p411
S'Arduino Esplora'
p412
sS'upload'
p413
(dp414
S'speed'
p415
S'57600'
p416
sS'maximum_size'
p417
S'28672'
p418
sS'protocol'
p419
S'avr109'
p420
sS'disable_flushing'
p421
S'true'
p422
ssaa(lp423
S'micro'
p424
a(dp425
S'bootloader'
p426
(dp427
S'extended_fuses'
p428
S'0xcb'
p429
sS'high_fuses'
p430
S'0xd8'
p431
sS'low_fuses'
p432
S'0xff'
p433
sS'lock_bits'
p434
S'0x2F'
p435
sS'file'
p436
S'Caterina-Micro.hex'
p437
sS'path'
p438
S'caterina'
p439
sS'unlock_bits'
p440
S'0x3F'
p441
ssS'build'
p442
(dp443
S'core'
p444
S'arduino'
p445
sS'f_cpu'
p446
S'16000000L'
p447
sS'vid'
p448
S'0x2341'
p449
sS'pid'
p450
S'0x8037'
p451
sS'variant'
p452
S'micro'
p453
sS'mcu'
p454
S'atmega32u4'
p455
ssS'name'
p456
S'Arduino Micro'
p457
sS'upload'
p458
(dp459
S'speed'
p460
S'57600'
p461
sS'maximum_size'
p462
S'28672'
p463
sS'protocol'
p464
S'avr109'
p465
sS'disable_flushing'
p466
S'true'
p467
ssaa(lp468
S'mini328'
p469
a(dp470
S'bootloader'
p471
(dp472
S'extended_fuses'
p473
S'0x05'
p474
sS'high_fuses'
p475
S'0xd8'
p476
sS'low_fuses'
p477
S'0xff'
p478
sS'lock_bits'
p479
S'0x0F'
p480
sS'file'
p481
S'optiboot_atmega328-Mini.hex'
p482
sS'path'
p483
S'optiboot'
p484
sS'unlock_bits'
p485
S'0x3F'
p486
ssS'build'
p487
(dp488
S'core'
p489
S'arduino'
p490
sS'mcu'
p491
S'atmega328p'
p492
sS'f_cpu'
p493
S'16000000L'
p494
sS'variant'
p495
S'eightanaloginputs'
p496
ssS'name'
p497
S'Arduino Mini w/ ATmega328'
p498
sS'upload'
p499
(dp500
S'speed'
p501
S'115200'
p502
sS'maximum_size'
p503
S'28672'
p504
sS'protocol'
p505
S'arduino'
p506
ssaa(lp507
S'mini'
p508
a(dp509
S'bootloader'
p510
(dp511
S'extended_fuses'
p512
S'0x00'
p513
sS'high_fuses'
p514
S'0xdd'
p515
sS'low_fuses'
p516
S'0xff'
p517
sS'lock_bits'
p518
S'0x0F'
p519
sS'file'
p520
S'ATmegaBOOT_168_ng.hex'
p521
sS'path'
p522
S'atmega'
p523
sS'unlock_bits'
p524
S'0x3F'
p525
ssS'build'
p526
(dp527
S'core'
p528
S'arduino'
p529
sS'mcu'
p530
S'atmega168'
p531
sS'f_cpu'
p532
S'16000000L'
p533
sS'variant'
p534
S'eightanaloginputs'
p535
ssS'name'
p536
S'Arduino Mini w/ ATmega168'
p537
sS'upload'
p538
(dp539
S'speed'
p540
S'19200'
p541
sS'maximum_size'
p542
S'14336'
p543
sS'protocol'
p544
S'arduino'
p545
ssaa(lp546
S'ethernet'
p547
a(dp548
S'bootloader'
p549
(dp550
S'extended_fuses'
p551
S'0x05'
p552
sS'high_fuses'
p553
S'0xde'
p554
sS'low_fuses'
p555
S'0xff'
p556
sS'lock_bits'
p557
S'0x0F'
p558
sS'file'
p559
S'optiboot_atmega328.hex'
p560
sS'path'
p561
S'optiboot'
p562
sS'unlock_bits'
p563
S'0x3F'
p564
ssS'build'
p565
(dp566
S'f_cpu'
p567
S'16000000L'
p568
sS'mcu'
p569
S'atmega328p'
p570
sS'variant'
p571
S'ethernet'
p572
sS'core'
p573
S'arduino'
p574
ssS'name'
p575
S'Arduino Ethernet'
p576
sS'upload'
p577
(dp578
S'speed'
p579
S'115200'
p580
sS'maximum_size'
p581
S'32256'
p582
sS'protocol'
p583
S'arduino'
p584
ssaa(lp585
S'fio'
p586
a(dp587
S'bootloader'
p588
(dp589
S'extended_fuses'
p590
S'0x05'
p591
sS'high_fuses'
p592
S'0xDA'
p593
sS'low_fuses'
p594
S'0xFF'
p595
sS'lock_bits'
p596
S'0x0F'
p597
sS'file'
p598
S'ATmegaBOOT_168_atmega328_pro_8MHz.hex'
p599
sS'path'
p600
S'arduino:atmega'
p601
sS'unlock_bits'
p602
S'0x3F'
p603
ssS'build'
p604
(dp605
S'core'
p606
S'arduino'
p607
sS'mcu'
p608
S'atmega328p'
p609
sS'f_cpu'
p610
S'8000000L'
p611
sS'variant'
p612
S'eightanaloginputs'
p613
ssS'name'
p614
S'Arduino Fio'
p615
sS'upload'
p616
(dp617
S'speed'
p618
S'57600'
p619
sS'maximum_size'
p620
S'30720'
p621
sS'protocol'
p622
S'arduino'
p623
ssaa(lp624
S'bt328'
p625
a(dp626
S'bootloader'
p627
(dp628
S'extended_fuses'
p629
S'0x05'
p630
sS'high_fuses'
p631
S'0xd8'
p632
sS'low_fuses'
p633
S'0xff'
p634
sS'lock_bits'
p635
S'0x0F'
p636
sS'file'
p637
S'ATmegaBOOT_168_atmega328_bt.hex'
p638
sS'path'
p639
S'bt'
p640
sS'unlock_bits'
p641
S'0x3F'
p642
ssS'build'
p643
(dp644
S'core'
p645
S'arduino'
p646
sS'mcu'
p647
S'atmega328p'
p648
sS'f_cpu'
p649
S'16000000L'
p650
sS'variant'
p651
S'eightanaloginputs'
p652
ssS'name'
p653
S'Arduino BT w/ ATmega328'
p654
sS'upload'
p655
(dp656
S'speed'
p657
S'19200'
p658
sS'maximum_size'
p659
S'28672'
p660
sS'protocol'
p661
S'arduino'
p662
sS'disable_flushing'
p663
S'true'
p664
ssaa(lp665
S'bt'
p666
a(dp667
S'bootloader'
p668
(dp669
S'extended_fuses'
p670
S'0x00'
p671
sS'high_fuses'
p672
S'0xdd'
p673
sS'low_fuses'
p674
S'0xff'
p675
sS'lock_bits'
p676
S'0x0F'
p677
sS'file'
p678
S'ATmegaBOOT_168.hex'
p679
sS'path'
p680
S'bt'
p681
sS'unlock_bits'
p682
S'0x3F'
p683
ssS'build'
p684
(dp685
S'core'
p686
S'arduino'
p687
sS'mcu'
p688
S'atmega168'
p689
sS'f_cpu'
p690
S'16000000L'
p691
sS'variant'
p692
S'eightanaloginputs'
p693
ssS'name'
p694
S'Arduino BT w/ ATmega168'
p695
sS'upload'
p696
(dp697
S'speed'
p698
S'19200'
p699
sS'maximum_size'
p700
S'14336'
p701
sS'protocol'
p702
S'arduino'
p703
sS'disable_flushing'
p704
S'true'
p705
ssaa(lp706
S'LilyPadUSB'
p707
a(dp708
S'bootloader'
p709
(dp710
S'extended_fuses'
p711
S'0xce'
p712
sS'high_fuses'
p713
S'0xd8'
p714
sS'low_fuses'
p715
S'0xff'
p716
sS'lock_bits'
p717
S'0x2F'
p718
sS'file'
p719
S'Caterina-LilyPadUSB.hex'
p720
sS'path'
p721
S'caterina-LilyPadUSB'
p722
sS'unlock_bits'
p723
S'0x3F'
p724
ssS'build'
p725
(dp726
S'core'
p727
S'arduino'
p728
sS'f_cpu'
p729
S'8000000L'
p730
sS'vid'
p731
S'0x1B4F'
p732
sS'pid'
p733
S'0x9208'
p734
sS'variant'
p735
S'leonardo'
p736
sS'mcu'
p737
S'atmega32u4'
p738
ssS'name'
p739
S'LilyPad Arduino USB'
p740
sS'upload'
p741
(dp742
S'speed'
p743
S'57600'
p744
sS'maximum_size'
p745
S'28672'
p746
sS'protocol'
p747
S'avr109'
p748
sS'disable_flushing'
p749
S'true'
p750
ssaa(lp751
S'lilypad328'
p752
a(dp753
S'bootloader'
p754
(dp755
S'extended_fuses'
p756
S'0x05'
p757
sS'high_fuses'
p758
S'0xDA'
p759
sS'low_fuses'
p760
S'0xFF'
p761
sS'lock_bits'
p762
S'0x0F'
p763
sS'file'
p764
S'ATmegaBOOT_168_atmega328_pro_8MHz.hex'
p765
sS'path'
p766
S'atmega'
p767
sS'unlock_bits'
p768
S'0x3F'
p769
ssS'build'
p770
(dp771
S'core'
p772
S'arduino'
p773
sS'mcu'
p774
S'atmega328p'
p775
sS'f_cpu'
p776
S'8000000L'
p777
sS'variant'
p778
S'standard'
p779
ssS'name'
p780
S'LilyPad Arduino w/ ATmega328'
p781
sS'upload'
p782
(dp783
S'speed'
p784
S'57600'
p785
sS'maximum_size'
p786
S'30720'
p787
sS'protocol'
p788
S'arduino'
p789
ssaa(lp790
S'lilypad'
p791
a(dp792
S'bootloader'
p793
(dp794
S'extended_fuses'
p795
S'0x00'
p796
sS'high_fuses'
p797
S'0xdd'
p798
sS'low_fuses'
p799
S'0xe2'
p800
sS'lock_bits'
p801
S'0x0F'
p802
sS'file'
p803
S'LilyPadBOOT_168.hex'
p804
sS'path'
p805
S'lilypad'
p806
sS'unlock_bits'
p807
S'0x3F'
p808
ssS'build'
p809
(dp810
S'core'
p811
S'arduino'
p812
sS'mcu'
p813
S'atmega168'
p814
sS'f_cpu'
p815
S'8000000L'
p816
sS'variant'
p817
S'standard'
p818
ssS'name'
p819
S'LilyPad Arduino w/ ATmega168'
p820
sS'upload'
p821
(dp822
S'speed'
p823
S'19200'
p824
sS'maximum_size'
p825
S'14336'
p826
sS'protocol'
p827
S'arduino'
p828
ssaa(lp829
S'pro5v328'
p830
a(dp831
S'bootloader'
p832
(dp833
S'extended_fuses'
p834
S'0x05'
p835
sS'high_fuses'
p836
S'0xDA'
p837
sS'low_fuses'
p838
S'0xFF'
p839
sS'lock_bits'
p840
S'0x0F'
p841
sS'file'
p842
S'ATmegaBOOT_168_atmega328.hex'
p843
sS'path'
p844
S'atmega'
p845
sS'unlock_bits'
p846
S'0x3F'
p847
ssS'build'
p848
(dp849
S'core'
p850
S'arduino'
p851
sS'mcu'
p852
S'atmega328p'
p853
sS'f_cpu'
p854
S'16000000L'
p855
sS'variant'
p856
S'standard'
p857
ssS'name'
p858
S'Arduino Pro or Pro Mini (5V, 16 MHz) w/ ATmega328'
p859
sS'upload'
p860
(dp861
S'speed'
p862
S'57600'
p863
sS'maximum_size'
p864
S'30720'
p865
sS'protocol'
p866
S'arduino'
p867
ssaa(lp868
S'pro5v'
p869
a(dp870
S'bootloader'
p871
(dp872
S'extended_fuses'
p873
S'0x00'
p874
sS'high_fuses'
p875
S'0xdd'
p876
sS'low_fuses'
p877
S'0xff'
p878
sS'lock_bits'
p879
S'0x0F'
p880
sS'file'
p881
S'ATmegaBOOT_168_diecimila.hex'
p882
sS'path'
p883
S'atmega'
p884
sS'unlock_bits'
p885
S'0x3F'
p886
ssS'build'
p887
(dp888
S'core'
p889
S'arduino'
p890
sS'mcu'
p891
S'atmega168'
p892
sS'f_cpu'
p893
S'16000000L'
p894
sS'variant'
p895
S'standard'
p896
ssS'name'
p897
S'Arduino Pro or Pro Mini (5V, 16 MHz) w/ ATmega168'
p898
sS'upload'
p899
(dp900
S'speed'
p901
S'19200'
p902
sS'maximum_size'
p903
S'14336'
p904
sS'protocol'
p905
S'arduino'
p906
ssaa(lp907
S'pro328'
p908
a(dp909
S'bootloader'
p910
(dp911
S'extended_fuses'
p912
S'0x05'
p913
sS'high_fuses'
p914
S'0xDA'
p915
sS'low_fuses'
p916
S'0xFF'
p917
sS'lock_bits'
p918
S'0x0F'
p919
sS'file'
p920
S'ATmegaBOOT_168_atmega328_pro_8MHz.hex'
p921
sS'path'
p922
S'atmega'
p923
sS'unlock_bits'
p924
S'0x3F'
p925
ssS'build'
p926
(dp927
S'core'
p928
S'arduino'
p929
sS'mcu'
p930
S'atmega328p'
p931
sS'f_cpu'
p932
S'8000000L'
p933
sS'variant'
p934
S'standard'
p935
ssS'name'
p936
S'Arduino Pro or Pro Mini (3.3V, 8 MHz) w/ ATmega328'
p937
sS'upload'
p938
(dp939
S'speed'
p940
S'57600'
p941
sS'maximum_size'
p942
S'30720'
p943
sS'protocol'
p944
S'arduino'
p945
ssaa(lp946
S'pro'
p947
a(dp948
S'bootloader'
p949
(dp950
S'extended_fuses'
p951
S'0x00'
p952
sS'high_fuses'
p953
S'0xdd'
p954
sS'low_fuses'
p955
S'0xc6'
p956
sS'lock_bits'
p957
S'0x0F'
p958
sS'file'
p959
S'ATmegaBOOT_168_pro_8MHz.hex'
p960
sS'path'
p961
S'atmega'
p962
sS'unlock_bits'
p963
S'0x3F'
p964
ssS'build'
p965
(dp966
S'core'
p967
S'arduino'
p968
sS'mcu'
p969
S'atmega168'
p970
sS'f_cpu'
p971
S'8000000L'
p972
sS'variant'
p973
S'standard'
p974
ssS'name'
p975
S'Arduino Pro or Pro Mini (3.3V, 8 MHz) w/ ATmega168'
p976
sS'upload'
p977
(dp978
S'speed'
p979
S'19200'
p980
sS'maximum_size'
p981
S'14336'
p982
sS'protocol'
p983
S'arduino'
p984
ssaa(lp985
S'atmega168'
p986
a(dp987
S'bootloader'
p988
(dp989
S'extended_fuses'
p990
S'0x00'
p991
sS'high_fuses'
p992
S'0xdd'
p993
sS'low_fuses'
p994
S'0xff'
p995
sS'lock_bits'
p996
S'0x0F'
p997
sS'file'
p998
S'ATmegaBOOT_168_ng.hex'
p999
sS'path'
p1000
S'atmega'
p1001
sS'unlock_bits'
p1002
S'0x3F'
p1003
ssS'build'
p1004
(dp1005
S'core'
p1006
S'arduino'
p1007
sS'mcu'
p1008
S'atmega168'
p1009
sS'f_cpu'
p1010
S'16000000L'
p1011
sS'variant'
p1012
S'standard'
p1013
ssS'name'
p1014
S'Arduino NG or older w/ ATmega168'
p1015
sS'upload'
p1016
(dp1017
S'speed'
p1018
S'19200'
p1019
sS'maximum_size'
p1020
S'14336'
p1021
sS'protocol'
p1022
S'arduino'
p1023
ssaa(lp1024
S'atmega8'
p1025
a(dp1026
S'bootloader'
p1027
(dp1028
S'high_fuses'
p1029
S'0xca'
p1030
sS'low_fuses'
p1031
S'0xdf'
p1032
sS'lock_bits'
p1033
S'0x0F'
p1034
sS'file'
p1035
S'ATmegaBOOT-prod-firmware-2009-11-07.hex'
p1036
sS'path'
p1037
S'atmega8'
p1038
sS'unlock_bits'
p1039
S'0x3F'
p1040
ssS'build'
p1041
(dp1042
S'core'
p1043
S'arduino'
p1044
sS'mcu'
p1045
S'atmega8'
p1046
sS'f_cpu'
p1047
S'16000000L'
p1048
sS'variant'
p1049
S'standard'
p1050
ssS'name'
p1051
S'Arduino NG or older w/ ATmega8'
p1052
sS'upload'
p1053
(dp1054
S'speed'
p1055
S'19200'
p1056
sS'maximum_size'
p1057
S'7168'
p1058
sS'protocol'
p1059
S'arduino'
p1060
ssaa(lp1061
S'robotControl'
p1062
a(dp1063
S'bootloader'
p1064
(dp1065
S'extended_fuses'
p1066
S'0xcb'
p1067
sS'high_fuses'
p1068
S'0xd8'
p1069
sS'low_fuses'
p1070
S'0xff'
p1071
sS'lock_bits'
p1072
S'0x2F'
p1073
sS'file'
p1074
S'Caterina-Robot-Control.hex'
p1075
sS'path'
p1076
S'caterina-Arduino_Robot'
p1077
sS'unlock_bits'
p1078
S'0x3F'
p1079
ssS'build'
p1080
(dp1081
S'core'
p1082
S'robot'
p1083
sS'f_cpu'
p1084
S'16000000L'
p1085
sS'vid'
p1086
S'0x2341'
p1087
sS'pid'
p1088
S'0x8038'
p1089
sS'variant'
p1090
S'robot_control'
p1091
sS'mcu'
p1092
S'atmega32u4'
p1093
ssS'name'
p1094
S'Arduino Robot Control'
p1095
sS'upload'
p1096
(dp1097
S'speed'
p1098
S'57600'
p1099
sS'maximum_size'
p1100
S'28672'
p1101
sS'protocol'
p1102
S'avr109'
p1103
sS'disable_flushing'
p1104
S'true'
p1105
ssaa(lp1106
S'robotMotor'
p1107
a(dp1108
S'bootloader'
p1109
(dp1110
S'extended_fuses'
p1111
S'0xcb'
p1112
sS'high_fuses'
p1113
S'0xd8'
p1114
sS'low_fuses'
p1115
S'0xff'
p1116
sS'lock_bits'
p1117
S'0x2F'
p1118
sS'file'
p1119
S'Caterina-Robot-Motor.hex'
p1120
sS'path'
p1121
S'caterina-Arduino_Robot'
p1122
sS'unlock_bits'
p1123
S'0x3F'
p1124
ssS'build'
p1125
(dp1126
S'core'
p1127
S'robot'
p1128
sS'f_cpu'
p1129
S'16000000L'
p1130
sS'vid'
p1131
S'0x2341'
p1132
sS'pid'
p1133
S'0x8039'
p1134
sS'variant'
p1135
S'robot_motor'
p1136
sS'mcu'
p1137
S'atmega32u4'
p1138
ssS'name'
p1139
S'Arduino Robot Motor'
p1140
sS'upload'
p1141
(dp1142
S'speed'
p1143
S'57600'
p1144
sS'maximum_size'
p1145
S'28672'
p1146
sS'protocol'
p1147
S'avr109'
p1148
sS'disable_flushing'
p1149
S'true'
p1150
ssaa(lp1151
S'pro328_20'
p1152
a(dp1153
S'bootloader'
p1154
(dp1155
S'extended_fuses'
p1156
S'0x05'
p1157
sS'high_fuses'
p1158
S'0xDE'
p1159
sS'low_fuses'
p1160
S'0xFF'
p1161
sS'lock_bits'
p1162
S'0x0F'
p1163
sS'file'
p1164
S'optiboot/optiboot_atmega328.hex'
p1165
sS'unlock_bits'
p1166
S'0x3F'
p1167
ssS'build'
p1168
(dp1169
S'core'
p1170
S'arduino'
p1171
sS'mcu'
p1172
S'atmega328p'
p1173
sS'f_cpu'
p1174
S'20000000L'
p1175
sS'variant'
p1176
S'standard'
p1177
ssS'name'
p1178
S'Arduino pro 328 20mhz'
p1179
sS'upload'
p1180
(dp1181
S'speed'
p1182
S'115200'
p1183
sS'maximum_size'
p1184
S'32256'
p1185
sS'protocol'
p1186
S'arduino'
p1187
sS'maximum_data_size'
p1188
S'2048'
p1189
ssaatp1190
Rp1191
(dp1192
S'default'
p1193
S'uno'
p1194
sbtp1195
a(S'used_libs'
p1196
(lp1197
S'/Applications/Arduino.app/Contents/Resources/Java/hardware/arduino/cores/arduino'
p1198
atp1199
a(S'make'
p1200
S'/Applications/Arduino.app/Contents/Resources/Java/hardware/tools/avr/bin/make'
p1201
tp1202
a(S'build_dir'
p1203
S'.build/uno'
p1204
tp1205
a(S'cc'
p1206
S'/Applications/Arduino.app/Contents/Resources/Java/hardware/tools/avr/bin/avr-gcc'
p1207
tp1208
a(S'cflags'
p1209
g2
(g3
g4
(lp1210
tp1211
Rp1212
tp1213
a(S'cxxflags'
p1214
g2
(g3
g4
(lp1215
S'-fno-exceptions'
p1216
atp1217
Rp1218
tp1219
a(S'arduino_variants_dir'
p1220
S'/Applications/Arduino.app/Contents/Resources/Java/hardware/arduino/variants'
p1221
tp1222
a(S'stty'
p1223
S'/bin/stty'
p1224
tp1225
a(S'version.txt'
p1226
S'/Applications/Arduino.app/Contents/Resources/Java/lib/version.txt'
p1227
tp1228
a(S'arduino_core_dir'
p1229
g1198
tp1230
a(S'boards.txt'
p1231
S'/Applications/Arduino.app/Contents/Resources/Java/hardware/arduino/boards.txt'
p1232
tp1233
a(S'avrdude.conf'
p1234
S'/Applications/Arduino.app/Contents/Resources/Java/hardware/tools/avr/etc/avrdude.conf'
p1235
tp1236
a(S'deps'
p1237
g2
(g3
g4
(lp1238
S'.build/uno/src/dependencies.d'
p1239
aS'.build/uno/arduino/dependencies.d'
p1240
atp1241
Rp1242
tp1243
a(S'arduino_lib_version'
p1244
g2
(cino.environment
Version
p1245
c__builtin__
tuple
p1246
(I1
I0
I6
tp1247
tp1248
Rp1249
tp1250
a.